; Function Attrs: mustprogress nofree nounwind willreturn memory(write, argmem: readwrite) uwtable
define internal { double, double } @_ZL12cart_forward5PJ_LPP8PJconsts(double %0, double %1, ptr noundef readonly captures(none) %2) #3 {
  %4 = tail call double @cos(double noundef %1) #8, !tbaa !46, !noalias !58
  %5 = tail call double @sin(double noundef %1) #8, !tbaa !46, !noalias !58
  %6 = getelementptr inbounds nuw i8, ptr %2, i64 168
  %7 = load double, ptr %6, align 8, !tbaa !47, !noalias !58
  %8 = getelementptr inbounds nuw i8, ptr %2, i64 216
  %9 = load double, ptr %8, align 8, !tbaa !48, !noalias !58
  %10 = fcmp oeq double %9, 0.000000e+00
  br i1 %10, label %_ZL9cartesian6PJ_LPZP8PJconsts.exit, label %11

11:                                               ; preds = %3
  %12 = fneg double %5
  %13 = fmul double %9, %12
  %14 = tail call double @llvm.fmuladd.f64(double %13, double %5, double 1.000000e+00)
  %15 = tail call double @sqrt(double noundef %14) #8, !tbaa !46, !noalias !58
  %16 = fdiv double %7, %15
  br label %_ZL9cartesian6PJ_LPZP8PJconsts.exit

_ZL9cartesian6PJ_LPZP8PJconsts.exit:              ; preds = %3, %11
  %.0.i.i = phi double [ %16, %11 ], [ %7, %3 ]
  %17 = fadd double %.0.i.i, 0.000000e+00
  %18 = fmul double %4, %17
  %19 = tail call double @cos(double noundef %0) #8, !tbaa !46, !noalias !58
  %20 = fmul double %19, %18
  %21 = tail call double @sin(double noundef %0) #8, !tbaa !46, !noalias !58
  %22 = fmul double %18, %21
  %.fca.0.insert = insertvalue { double, double } poison, double %20, 0
  %.fca.1.insert = insertvalue { double, double } %.fca.0.insert, double %22, 1
  ret { double, double } %.fca.1.insert
}